Certificate:
    Data:
        Version: 3 (0x2)
        Serial Number: 4096 (0x1000)
        Signature Algorithm: md5WithRSAEncryption
        Issuer: C=US, ST=Utah, L=SLC, O=UofU, OU=MSD, CN=Alexia/emailAddress=u0774292@utah.edu
        Validity
            Not Before: Mar 18 16:51:34 2025 GMT
            Not After : Mar 18 16:51:34 2026 GMT
        Subject: C=US, ST=Utah, O=UofU, OU=MSD, CN=Server/emailAddress=u0774292@utah.edu
        Subject Public Key Info:
            Public Key Algorithm: rsaEncryption
                Public-Key: (4096 bit)
                Modulus:
                    00:ad:90:d4:5d:16:90:c6:3f:11:b0:58:96:06:88:
                    30:63:9d:f8:ba:45:8b:b4:c6:02:07:b6:4c:7c:03:
                    90:da:75:7e:f0:2c:cd:32:ce:20:cd:27:7c:3f:09:
                    ed:1a:92:12:02:ba:eb:54:bb:4a:8e:81:da:b0:38:
                    7f:3c:02:af:e8:ca:a0:20:f8:ef:51:49:42:c7:49:
                    5b:c7:78:24:7e:e4:34:fb:b7:67:06:2e:9c:0c:6f:
                    4a:99:4e:fa:06:9b:51:df:09:09:33:d7:dc:63:d6:
                    cf:97:9a:f6:a2:3f:ac:b7:16:c5:11:9c:e6:e4:2a:
                    08:91:56:2e:7c:58:cb:ed:8b:72:a0:4c:7f:ff:b9:
                    93:c9:14:3f:28:c8:cc:00:ed:03:04:48:29:d2:62:
                    77:76:61:2d:17:62:c3:47:ae:40:d5:cd:49:ad:5d:
                    fb:7a:8d:fb:fc:01:d5:9b:8d:04:34:fc:69:40:c4:
                    35:e4:99:51:26:38:ad:18:a5:0c:3f:7e:a5:e8:97:
                    06:6a:12:8d:54:fc:d8:66:f3:e3:f2:ee:3c:8f:dd:
                    33:2d:1a:33:1d:5e:26:df:47:57:e6:ec:f1:df:07:
                    69:b9:1f:c9:ba:08:85:9f:5a:10:f1:39:fe:63:fd:
                    e1:86:c9:fd:3e:66:2b:f5:38:52:f9:ea:af:ad:a0:
                    cb:aa:31:bd:07:30:a8:95:e2:3f:36:fe:62:8a:06:
                    4a:a1:60:05:c4:1f:5e:f4:22:94:5f:3a:25:a7:0b:
                    e6:bc:18:67:56:1b:ed:bb:70:c9:91:2b:e7:cd:4d:
                    54:10:37:5c:36:04:0f:b9:71:b5:5e:98:51:9c:4e:
                    ee:f7:3f:45:7d:aa:86:14:e5:2c:c2:c1:8a:ae:dc:
                    a1:48:84:fb:a9:19:d2:26:80:10:8d:76:5c:25:50:
                    6a:29:97:8b:7c:f0:ac:d9:d2:46:68:51:14:ff:19:
                    9f:33:32:d2:ba:df:c4:07:8b:18:be:98:b7:4c:73:
                    74:4c:4d:0b:55:ff:63:3a:93:a5:0b:07:66:00:47:
                    27:be:43:6a:87:a1:cf:99:c1:09:82:89:bd:e4:35:
                    8a:5a:ba:be:ee:92:c1:f5:55:09:a7:21:96:5d:59:
                    df:9d:70:55:c0:a1:88:a0:30:0e:8b:cd:2c:f4:06:
                    52:5f:f8:8d:df:48:ea:f6:09:5f:1a:63:e9:f5:74:
                    ac:b3:6e:0d:01:68:90:06:ba:d3:d8:bd:43:38:c3:
                    76:c1:19:8f:95:73:cd:7b:19:90:ce:63:2c:f4:70:
                    6d:cb:74:67:a7:6b:1a:2e:f9:12:dd:e1:9c:71:7d:
                    f3:e6:f1:ff:05:e6:dc:fe:30:b0:35:55:1e:9d:3e:
                    8f:2d:fb
                Exponent: 65537 (0x10001)
        X509v3 extensions:
            X509v3 Basic Constraints: 
                CA:FALSE
            Netscape Comment: 
                OpenSSL Generated Certificate
            X509v3 Subject Key Identifier: 
                26:B5:59:48:B1:54:8A:1A:DB:EE:AD:0C:F8:27:EC:7A:0E:BB:A1:AC
            X509v3 Authority Key Identifier: 
                keyid:C2:AF:06:B6:BD:C1:51:8D:C5:BE:D2:ED:4A:6A:AB:55:3A:E9:BC:47
                DirName:/C=US/ST=Utah/L=SLC/O=UofU/OU=MSD/CN=Alexia/emailAddress=u0774292@utah.edu
                serial:01:C4:B2:54:96:C8:9B:89:17:71:59:59:94:6C:4B:53:E7:49:A4:C5
    Signature Algorithm: md5WithRSAEncryption
    Signature Value:
        58:85:d1:be:53:96:59:25:31:9b:1a:0b:21:f3:d1:db:65:a5:
        79:18:35:d8:40:66:58:42:05:39:02:02:5f:9c:37:c0:45:c1:
        08:1e:43:1e:c3:09:04:55:86:22:37:88:89:e9:4b:b0:b8:1b:
        66:95:53:e1:ac:d3:05:29:da:a8:21:87:97:03:c0:e7:f9:f0:
        e7:82:0f:e8:ee:44:3f:87:fe:b0:6a:a6:7d:77:ed:18:60:6f:
        8e:de:80:d9:66:a2:4c:3a:64:e9:43:6c:b9:83:4c:29:cb:50:
        a1:ce:e2:60:3d:ac:52:f8:70:d3:43:12:4b:2d:7f:aa:46:7b:
        00:e3:26:ff:6a:9a:70:72:da:a5:e8:85:97:50:26:2f:b5:f0:
        b6:1a:db:d4:b7:94:13:b4:07:b7:b8:ce:83:48:2c:3b:53:ca:
        73:c6:2c:6d:44:e8:bc:25:ef:3a:5a:1a:48:89:e5:b4:76:ae:
        e4:63:67:f1:fc:f7:1d:17:11:9a:61:a9:99:fc:2b:57:42:2f:
        ef:2f:f4:f8:08:e4:95:e9:08:3d:e3:ee:8e:93:93:a0:94:3b:
        b9:88:4b:b3:6f:b0:8b:05:74:82:17:a6:f4:52:dc:43:a9:a7:
        80:ab:06:1a:42:7c:c3:e9:0d:00:67:77:47:d3:e0:64:30:fc:
        82:a6:23:46:ec:fe:1b:70:b3:e5:85:0b:99:39:aa:6f:cb:d5:
        93:ca:a8:01:29:03:dc:d3:02:be:25:73:d8:3c:13:9d:6f:9c:
        e3:16:35:3e:51:2d:a1:41:cd:7b:46:d0:89:89:2b:e9:45:0c:
        49:ac:61:e6:1e:18:9d:04:e5:9e:78:3e:77:ff:97:b3:30:18:
        d0:33:f9:9f:34:dd:e6:be:f7:3e:74:9f:15:d9:23:6b:34:18:
        30:ce:7c:48:05:2c:f1:47:f6:e6:4f:da:c1:87:16:aa:ee:68:
        a3:6d:49:36:46:26:2a:9a:f3:e7:38:bb:60:4d:93:c2:8a:d8:
        d5:71:8e:cf:54:62:40:cb:18:5f:e5:24:d6:f8:b9:8c:07:30:
        ad:ac:b6:d7:1f:e0:4a:c5:e5:32:41:4f:b1:c4:fd:07:ed:ee:
        c8:3c:0f:92:92:51:ed:fb:bb:40:ff:dd:2b:e4:93:9a:1e:23:
        4e:94:0b:33:d5:63:ea:b7:50:37:9e:6a:c0:8a:c5:de:04:71:
        5e:8a:dd:1f:ac:45:a5:c4:2f:d8:26:fc:7f:b6:d4:19:e2:2d:
        48:90:6f:ad:2d:db:b8:03:13:61:de:e2:42:3f:6d:ce:4d:2f:
        42:f9:cb:d4:b5:a8:13:45:d6:2b:c5:f2:7f:c0:5e:dc:30:2d:
        0a:16:6c:0f:bc:04:31:81
-----BEGIN CERTIFICATE-----
MIIGejCCBGKgAwIBAgICEAAwDQYJKoZIhvcNAQEEBQAwejELMAkGA1UEBhMCVVMx
DTALBgNVBAgMBFV0YWgxDDAKBgNVBAcMA1NMQzENMAsGA1UECgwEVW9mVTEMMAoG
A1UECwwDTVNEMQ8wDQYDVQQDDAZBbGV4aWExIDAeBgkqhkiG9w0BCQEWEXUwNzc0
MjkyQHV0YWguZWR1MB4XDTI1MDMxODE2NTEzNFoXDTI2MDMxODE2NTEzNFowbDEL
MAkGA1UEBhMCVVMxDTALBgNVBAgMBFV0YWgxDTALBgNVBAoMBFVvZlUxDDAKBgNV
BAsMA01TRDEPMA0GA1UEAwwGU2VydmVyMSAwHgYJKoZIhvcNAQkBFhF1MDc3NDI5
MkB1dGFoLmVkdTCCAiIwDQYJKoZIhvcNAQEBBQADggIPADCCAgoCggIBAK2Q1F0W
kMY/EbBYlgaIMGOd+LpFi7TGAge2THwDkNp1fvAszTLOIM0nfD8J7RqSEgK661S7
So6B2rA4fzwCr+jKoCD471FJQsdJW8d4JH7kNPu3ZwYunAxvSplO+gabUd8JCTPX
3GPWz5ea9qI/rLcWxRGc5uQqCJFWLnxYy+2LcqBMf/+5k8kUPyjIzADtAwRIKdJi
d3ZhLRdiw0euQNXNSa1d+3qN+/wB1ZuNBDT8aUDENeSZUSY4rRilDD9+peiXBmoS
jVT82Gbz4/LuPI/dMy0aMx1eJt9HV+bs8d8HabkfyboIhZ9aEPE5/mP94YbJ/T5m
K/U4Uvnqr62gy6oxvQcwqJXiPzb+YooGSqFgBcQfXvQilF86JacL5rwYZ1Yb7btw
yZEr581NVBA3XDYED7lxtV6YUZxO7vc/RX2qhhTlLMLBiq7coUiE+6kZ0iaAEI12
XCVQaimXi3zwrNnSRmhRFP8ZnzMy0rrfxAeLGL6Yt0xzdExNC1X/YzqTpQsHZgBH
J75Daoehz5nBCYKJveQ1ilq6vu6SwfVVCachll1Z351wVcChiKAwDovNLPQGUl/4
jd9I6vYJXxpj6fV0rLNuDQFokAa609i9QzjDdsEZj5VzzXsZkM5jLPRwbct0Z6dr
Gi75Et3hnHF98+bx/wXm3P4wsDVVHp0+jy37AgMBAAGjggEWMIIBEjAJBgNVHRME
AjAAMCwGCWCGSAGG+EIBDQQfFh1PcGVuU1NMIEdlbmVyYXRlZCBDZXJ0aWZpY2F0
ZTAdBgNVHQ4EFgQUJrVZSLFUihrb7q0M+Cfseg67oawwgbcGA1UdIwSBrzCBrIAU
wq8Gtr3BUY3FvtLtSmqrVTrpvEehfqR8MHoxCzAJBgNVBAYTAlVTMQ0wCwYDVQQI
DARVdGFoMQwwCgYDVQQHDANTTEMxDTALBgNVBAoMBFVvZlUxDDAKBgNVBAsMA01T
RDEPMA0GA1UEAwwGQWxleGlhMSAwHgYJKoZIhvcNAQkBFhF1MDc3NDI5MkB1dGFo
LmVkdYIUAcSyVJbIm4kXcVlZlGxLU+dJpMUwDQYJKoZIhvcNAQEEBQADggIBAFiF
0b5TllklMZsaCyHz0dtlpXkYNdhAZlhCBTkCAl+cN8BFwQgeQx7DCQRVhiI3iInp
S7C4G2aVU+Gs0wUp2qghh5cDwOf58OeCD+juRD+H/rBqpn137Rhgb47egNlmokw6
ZOlDbLmDTCnLUKHO4mA9rFL4cNNDEkstf6pGewDjJv9qmnBy2qXohZdQJi+18LYa
29S3lBO0B7e4zoNILDtTynPGLG1E6Lwl7zpaGkiJ5bR2ruRjZ/H89x0XEZphqZn8
K1dCL+8v9PgI5JXpCD3j7o6Tk6CUO7mIS7NvsIsFdIIXpvRS3EOpp4CrBhpCfMPp
DQBnd0fT4GQw/IKmI0bs/htws+WFC5k5qm/L1ZPKqAEpA9zTAr4lc9g8E51vnOMW
NT5RLaFBzXtG0ImJK+lFDEmsYeYeGJ0E5Z54Pnf/l7MwGNAz+Z803ea+9z50nxXZ
I2s0GDDOfEgFLPFH9uZP2sGHFqruaKNtSTZGJiqa8+c4u2BNk8KK2NVxjs9UYkDL
GF/lJNb4uYwHMK2sttcf4ErF5TJBT7HE/Qft7sg8D5KSUe37u0D/3Svkk5oeI06U
CzPVY+q3UDeeasCKxd4EcV6K3R+sRaXEL9gm/H+21BniLUiQb60t27gDE2He4kI/
bc5NL0L5y9S1qBNF1ivF8n/AXtwwLQoWbA+8BDGB
-----END CERTIFICATE-----
