Certificate:
    Data:
        Version: 3 (0x2)
        Serial Number: 4097 (0x1001)
        Signature Algorithm: md5WithRSAEncryption
        Issuer: C=US, ST=Utah, L=SLC, O=UofU, OU=MSD, CN=Alexia/emailAddress=u0774292@utah.edu
        Validity
            Not Before: Mar 18 16:51:59 2025 GMT
            Not After : Mar 18 16:51:59 2026 GMT
        Subject: C=US, ST=Utah, O=UofU, OU=MSD, CN=Client/emailAddress=u0774292@utah.edu
        Subject Public Key Info:
            Public Key Algorithm: rsaEncryption
                Public-Key: (4096 bit)
                Modulus:
                    00:c8:99:ad:68:0d:09:b8:55:94:83:ae:4b:df:f9:
                    16:75:0e:aa:3b:66:b8:14:f9:1f:6f:d2:79:80:81:
                    a3:d3:82:de:dc:dd:11:03:b2:c6:f5:69:1e:72:d2:
                    c4:f4:f1:d7:5c:0c:27:bc:87:f5:8f:31:87:b5:5e:
                    f4:81:1d:7f:81:be:d5:bb:22:cd:c2:b3:a7:fd:06:
                    a6:c6:c5:84:fa:57:21:39:89:7b:52:3f:19:54:a2:
                    8a:fa:59:3c:23:f3:0e:80:8c:f9:da:4f:02:b7:66:
                    25:e3:e8:0c:0c:9f:ec:c5:7c:07:76:ce:d5:c5:0d:
                    9d:14:78:72:a3:fd:29:c7:f2:5a:b2:58:0c:4c:d5:
                    5b:04:a7:c5:52:4a:43:c4:c9:3e:46:b3:4d:0f:e8:
                    d0:7e:84:a7:16:07:1e:b6:98:ca:26:f5:9c:47:9b:
                    82:b6:38:bc:f8:7d:11:4e:75:6a:65:2e:2e:fd:f7:
                    aa:47:84:9c:22:e4:55:3c:27:3a:eb:34:9c:ae:72:
                    2e:44:12:f6:2d:1f:51:81:10:1a:f1:9c:4c:79:d5:
                    f2:c0:02:4b:16:35:09:e3:0c:8a:69:fa:9c:af:5a:
                    37:20:fa:2f:33:27:23:9e:ef:cf:ae:15:76:da:03:
                    47:25:7e:03:80:40:35:df:c1:c4:26:21:51:26:5c:
                    cc:47:86:08:f9:86:a0:4d:0d:d3:c2:0f:0e:0a:79:
                    50:f4:bc:b3:54:f3:63:53:e7:d0:f9:2c:6b:6f:65:
                    92:98:77:80:04:fa:10:a7:fb:2b:9e:20:82:ea:c5:
                    f8:48:ab:35:72:03:f5:6e:83:c9:37:ff:9e:7b:65:
                    41:75:5b:15:9b:2c:5f:e5:66:8c:5b:5f:f3:00:23:
                    ad:a5:b8:b9:63:38:e8:b7:f3:41:8c:0c:ab:64:0a:
                    d8:c8:f0:4a:31:46:f2:3f:cb:bc:04:87:2d:ff:af:
                    b5:00:b7:b4:87:0b:c9:66:89:dd:fd:e1:f8:bf:1c:
                    34:1b:c4:98:75:49:21:fb:13:33:91:aa:6e:db:9c:
                    84:a9:2b:20:4b:62:b2:97:c3:82:81:41:52:c6:b3:
                    39:46:dd:44:93:2e:82:bf:07:ad:b6:27:46:22:66:
                    9c:97:a7:ef:5f:88:91:0c:e0:a8:56:35:fc:b0:d9:
                    17:ae:d2:ec:98:40:9c:72:e3:6e:cc:36:4f:9f:a5:
                    20:fc:63:f9:da:83:f2:8e:52:72:75:98:c7:75:10:
                    d8:65:a1:20:87:57:07:c8:ba:7e:71:0b:12:0e:98:
                    2d:62:e9:79:f6:83:15:eb:86:c2:4a:54:30:5a:b5:
                    22:cd:4c:77:91:d8:ef:14:db:52:12:d1:35:49:4a:
                    3a:7c:25
                Exponent: 65537 (0x10001)
        X509v3 extensions:
            X509v3 Basic Constraints: 
                CA:FALSE
            Netscape Comment: 
                OpenSSL Generated Certificate
            X509v3 Subject Key Identifier: 
                1C:3C:D6:08:71:34:21:A3:8E:B4:63:32:DA:4F:C1:F1:F9:30:4C:3B
            X509v3 Authority Key Identifier: 
                keyid:C2:AF:06:B6:BD:C1:51:8D:C5:BE:D2:ED:4A:6A:AB:55:3A:E9:BC:47
                DirName:/C=US/ST=Utah/L=SLC/O=UofU/OU=MSD/CN=Alexia/emailAddress=u0774292@utah.edu
                serial:01:C4:B2:54:96:C8:9B:89:17:71:59:59:94:6C:4B:53:E7:49:A4:C5
    Signature Algorithm: md5WithRSAEncryption
    Signature Value:
        b8:2f:63:82:90:c0:dd:81:0a:ab:1e:5a:3d:1d:15:2f:b0:5e:
        e7:14:3e:4a:c4:23:e4:b6:08:85:8f:5d:5c:e0:e8:32:2e:72:
        99:2e:3e:11:65:21:66:d2:ed:c6:04:cb:1b:3a:42:4d:37:5b:
        d0:2b:55:8d:b6:d4:a0:51:4a:42:d1:48:39:c0:63:e5:62:f0:
        e3:3f:ff:96:9a:93:08:e4:d2:e7:26:b0:f7:bf:7c:fc:62:9c:
        86:eb:1b:a1:fe:6d:0a:60:7f:60:fe:a6:62:71:b4:33:2c:37:
        5b:e3:60:b6:5e:13:81:8a:53:98:db:48:cd:29:2d:fd:51:2d:
        f6:23:73:eb:cf:e2:22:ac:2a:b5:78:ea:4d:74:18:1c:9c:8c:
        83:4e:10:39:65:d7:38:0a:2d:54:d8:9f:3c:a0:06:09:bc:e2:
        41:dd:a1:06:78:4d:58:fd:50:60:ee:46:3c:5a:22:be:d0:97:
        82:70:c2:5a:34:72:bb:37:82:38:02:62:de:28:ee:cf:96:d6:
        44:bb:d5:f5:15:a9:94:3d:9b:0b:09:fd:ef:bf:c3:d4:84:03:
        3d:9f:0a:b1:a7:e7:e9:11:88:e6:8d:4a:a0:ff:cb:a6:3c:b1:
        c8:99:1c:03:23:c3:e5:86:5d:9d:fa:7b:0a:ee:c4:35:06:74:
        ff:b2:9f:c7:f7:5b:46:b1:26:bc:0b:ed:5b:89:f4:af:3e:de:
        16:7e:da:d0:fd:b7:2e:3b:5d:22:59:48:d5:13:13:a8:91:fd:
        8d:1f:01:63:a7:0d:c1:bb:1b:07:42:fa:6a:46:8a:6c:0e:4f:
        9a:c6:8e:3b:59:98:ab:43:40:5e:aa:cb:2f:18:34:6d:2a:4b:
        e0:c9:92:f4:fe:7b:f7:0a:0d:61:42:46:7b:4c:db:4e:53:74:
        33:91:69:62:cb:fe:49:f2:cf:20:dd:bb:01:a9:73:42:91:03:
        f2:79:d1:83:da:04:a8:45:1f:f1:6b:2c:58:ae:21:89:21:57:
        e4:9a:04:10:1b:c4:f4:d5:0d:ab:5b:89:ba:08:36:0f:1a:68:
        17:14:fc:00:e6:f2:30:0f:60:27:fc:02:c5:75:58:36:0d:ff:
        b6:33:05:2f:da:5b:6c:e7:51:c6:e1:36:b9:95:43:23:45:3f:
        4d:7b:cb:41:01:e0:d8:da:2e:ef:6a:18:2a:44:a3:9a:98:c0:
        45:f6:ed:cc:a6:89:4d:6e:f7:0c:0c:09:52:d2:5a:ee:2a:f4:
        2b:63:03:f6:84:bd:19:b3:3f:5e:ce:33:cd:79:a7:49:59:03:
        85:09:7d:1e:8a:99:b5:ad:a5:81:a3:7a:61:ab:b6:29:8b:81:
        3f:ef:17:93:0d:4d:72:1b
-----BEGIN CERTIFICATE-----
MIIGejCCBGKgAwIBAgICEAEwDQYJKoZIhvcNAQEEBQAwejELMAkGA1UEBhMCVVMx
DTALBgNVBAgMBFV0YWgxDDAKBgNVBAcMA1NMQzENMAsGA1UECgwEVW9mVTEMMAoG
A1UECwwDTVNEMQ8wDQYDVQQDDAZBbGV4aWExIDAeBgkqhkiG9w0BCQEWEXUwNzc0
MjkyQHV0YWguZWR1MB4XDTI1MDMxODE2NTE1OVoXDTI2MDMxODE2NTE1OVowbDEL
MAkGA1UEBhMCVVMxDTALBgNVBAgMBFV0YWgxDTALBgNVBAoMBFVvZlUxDDAKBgNV
BAsMA01TRDEPMA0GA1UEAwwGQ2xpZW50MSAwHgYJKoZIhvcNAQkBFhF1MDc3NDI5
MkB1dGFoLmVkdTCCAiIwDQYJKoZIhvcNAQEBBQADggIPADCCAgoCggIBAMiZrWgN
CbhVlIOuS9/5FnUOqjtmuBT5H2/SeYCBo9OC3tzdEQOyxvVpHnLSxPTx11wMJ7yH
9Y8xh7Ve9IEdf4G+1bsizcKzp/0GpsbFhPpXITmJe1I/GVSiivpZPCPzDoCM+dpP
ArdmJePoDAyf7MV8B3bO1cUNnRR4cqP9KcfyWrJYDEzVWwSnxVJKQ8TJPkazTQ/o
0H6EpxYHHraYyib1nEebgrY4vPh9EU51amUuLv33qkeEnCLkVTwnOus0nK5yLkQS
9i0fUYEQGvGcTHnV8sACSxY1CeMMimn6nK9aNyD6LzMnI57vz64VdtoDRyV+A4BA
Nd/BxCYhUSZczEeGCPmGoE0N08IPDgp5UPS8s1TzY1Pn0Pksa29lkph3gAT6EKf7
K54ggurF+EirNXID9W6DyTf/nntlQXVbFZssX+VmjFtf8wAjraW4uWM46LfzQYwM
q2QK2MjwSjFG8j/LvASHLf+vtQC3tIcLyWaJ3f3h+L8cNBvEmHVJIfsTM5Gqbtuc
hKkrIEtispfDgoFBUsazOUbdRJMugr8HrbYnRiJmnJen71+IkQzgqFY1/LDZF67S
7JhAnHLjbsw2T5+lIPxj+dqD8o5ScnWYx3UQ2GWhIIdXB8i6fnELEg6YLWLpefaD
FeuGwkpUMFq1Is1Md5HY7xTbUhLRNUlKOnwlAgMBAAGjggEWMIIBEjAJBgNVHRME
AjAAMCwGCWCGSAGG+EIBDQQfFh1PcGVuU1NMIEdlbmVyYXRlZCBDZXJ0aWZpY2F0
ZTAdBgNVHQ4EFgQUHDzWCHE0IaOOtGMy2k/B8fkwTDswgbcGA1UdIwSBrzCBrIAU
wq8Gtr3BUY3FvtLtSmqrVTrpvEehfqR8MHoxCzAJBgNVBAYTAlVTMQ0wCwYDVQQI
DARVdGFoMQwwCgYDVQQHDANTTEMxDTALBgNVBAoMBFVvZlUxDDAKBgNVBAsMA01T
RDEPMA0GA1UEAwwGQWxleGlhMSAwHgYJKoZIhvcNAQkBFhF1MDc3NDI5MkB1dGFo
LmVkdYIUAcSyVJbIm4kXcVlZlGxLU+dJpMUwDQYJKoZIhvcNAQEEBQADggIBALgv
Y4KQwN2BCqseWj0dFS+wXucUPkrEI+S2CIWPXVzg6DIucpkuPhFlIWbS7cYEyxs6
Qk03W9ArVY221KBRSkLRSDnAY+Vi8OM//5aakwjk0ucmsPe/fPxinIbrG6H+bQpg
f2D+pmJxtDMsN1vjYLZeE4GKU5jbSM0pLf1RLfYjc+vP4iKsKrV46k10GBycjINO
EDll1zgKLVTYnzygBgm84kHdoQZ4TVj9UGDuRjxaIr7Ql4Jwwlo0crs3gjgCYt4o
7s+W1kS71fUVqZQ9mwsJ/e+/w9SEAz2fCrGn5+kRiOaNSqD/y6Y8sciZHAMjw+WG
XZ36ewruxDUGdP+yn8f3W0axJrwL7VuJ9K8+3hZ+2tD9ty47XSJZSNUTE6iR/Y0f
AWOnDcG7GwdC+mpGimwOT5rGjjtZmKtDQF6qyy8YNG0qS+DJkvT+e/cKDWFCRntM
205TdDORaWLL/knyzyDduwGpc0KRA/J50YPaBKhFH/FrLFiuIYkhV+SaBBAbxPTV
DatbiboINg8aaBcU/ADm8jAPYCf8AsV1WDYN/7YzBS/aW2znUcbhNrmVQyNFP017
y0EB4NjaLu9qGCpEo5qYwEX27cymiU1u9wwMCVLSWu4q9CtjA/aEvRmzP17OM815
p0lZA4UJfR6KmbWtpYGjemGrtimLgT/vF5MNTXIb
-----END CERTIFICATE-----
